; Function Attrs: mustprogress nounwind uwtable
define hidden void @_ZN16JvmtiTagMapTable5clearEv(ptr nocapture noundef nonnull align 8 dereferenceable(24) %0) local_unnamed_addr #1 align 2 {
  %2 = load i32, ptr %0, align 8
  %.not6.i = icmp eq i32 %2, 0
  br i1 %.not6.i, label %_ZN21ResourceHashtableBaseI34ResizeableResourceHashtableStorageI14JvmtiTagMapKeylLN6AnyObj15allocation_typeE2EL8MEMFLAGS23EES1_lLS3_2ELS4_23EXadL_ZNS1_8get_hashERKS1_EEXadL_ZNS1_6equalsES7_S7_EEE6unlinkIZN16JvmtiTagMapTable5clearEvE9RemoveAllEEvPT_.exit, label %.lr.ph4.i

.lr.ph4.i:                                        ; preds = %1
  %3 = getelementptr inbounds i8, ptr %0, i64 8
  %4 = getelementptr inbounds i8, ptr %0, i64 16
  %wide.trip.count.i = zext i32 %2 to i64
  br label %5

5:                                                ; preds = %._crit_edge.i, %.lr.ph4.i
  %indvars.iv.i = phi i64 [ 0, %.lr.ph4.i ], [ %indvars.iv.next.i, %._crit_edge.i ]
  %6 = load ptr, ptr %3, align 8
  %7 = getelementptr inbounds ptr, ptr %6, i64 %indvars.iv.i
  %8 = load ptr, ptr %7, align 8
  %.not1.i = icmp eq ptr %8, null
  br i1 %.not1.i, label %._crit_edge.i, label %.lr.ph.i

.lr.ph.i:                                         ; preds = %5, %.lr.ph.i
  %9 = phi ptr [ %16, %.lr.ph.i ], [ %8, %5 ]
  %10 = getelementptr inbounds i8, ptr %9, i64 8
  %11 = tail call noundef ptr @_ZN11JvmtiExport16weak_tag_storageEv() #11
  tail call void @_ZN10WeakHandle7releaseEP10OopStorage(ptr noundef nonnull align 8 dereferenceable(8) %10, ptr noundef %11) #11
  %12 = getelementptr inbounds i8, ptr %9, i64 32
  %13 = load ptr, ptr %12, align 8
  store ptr %13, ptr %7, align 8
  tail call void @_ZN6AnyObjdlEPv(ptr noundef nonnull %9) #11
  %14 = load i32, ptr %4, align 8
  %15 = add nsw i32 %14, -1
  store i32 %15, ptr %4, align 8
  %16 = load ptr, ptr %7, align 8
  %.not.i = icmp eq ptr %16, null
  br i1 %.not.i, label %._crit_edge.i, label %.lr.ph.i, !llvm.loop !6

._crit_edge.i:                                    ; preds = %.lr.ph.i, %5
  %indvars.iv.next.i = add nuw nsw i64 %indvars.iv.i, 1
  %exitcond.not.i = icmp eq i64 %indvars.iv.next.i, %wide.trip.count.i
  br i1 %exitcond.not.i, label %_ZN21ResourceHashtableBaseI34ResizeableResourceHashtableStorageI14JvmtiTagMapKeylLN6AnyObj15allocation_typeE2EL8MEMFLAGS23EES1_lLS3_2ELS4_23EXadL_ZNS1_8get_hashERKS1_EEXadL_ZNS1_6equalsES7_S7_EEE6unlinkIZN16JvmtiTagMapTable5clearEvE9RemoveAllEEvPT_.exit, label %5, !llvm.loop !8

_ZN21ResourceHashtableBaseI34ResizeableResourceHashtableStorageI14JvmtiTagMapKeylLN6AnyObj15allocation_typeE2EL8MEMFLAGS23EES1_lLS3_2ELS4_23EXadL_ZNS1_8get_hashERKS1_EEXadL_ZNS1_6equalsES7_S7_EEE6unlinkIZN16JvmtiTagMapTable5clearEvE9RemoveAllEEvPT_.exit: ; preds = %._crit_edge.i, %1
  ret void
}